; Function Attrs: mustprogress uwtable
define dso_local noundef zeroext i1 @_ZNK16cmCPackIFWCommon16IsVersionGreaterEPKc(ptr noundef nonnull readonly align 8 captures(none) dereferenceable(8) %0, ptr noundef %1) local_unnamed_addr #4 align 2 {
  %3 = load ptr, ptr %0, align 8, !tbaa !4
  %.not = icmp eq ptr %3, null
  br i1 %.not, label %7, label %4

4:                                                ; preds = %2
  %5 = getelementptr inbounds nuw i8, ptr %3, i64 2232
  %6 = tail call noundef zeroext i1 @_ZN13cmSystemTools14VersionCompareENS_9CompareOpERKNSt7__cxx1112basic_stringIcSt11char_traitsIcESaIcEEEPKc(i32 noundef 4, ptr noundef nonnull align 8 dereferenceable(32) %5, ptr noundef %1)
  br label %7

7:                                                ; preds = %2, %4
  %.0 = phi i1 [ %6, %4 ], [ false, %2 ]
  ret i1 %.0
}